target datalayout = "e-m:e-p270:32:32-p271:32:32-p272:64:64-i64:64-i128:128-f80:128-n8:16:32:64-S128"
target triple = "x86_64-pc-linux-gnu"

%struct._IStateCoder = type { ptr, ptr, ptr, ptr, ptr }
%struct.CMixCoder = type { ptr, ptr, i32, [3 x i32], [3 x i64], [3 x i64], [4 x i64], [4 x %struct._IStateCoder] }
%struct.CXzBlock = type { i64, i64, i8, [4 x %struct.CXzFilter] }
%struct.CXzFilter = type { i64, i32, [20 x i8] }
%struct.CXzUnpacker = type { i32, i32, i32, i32, i16, i32, i64, i64, i64, i64, i64, i64, i64, i32, %struct.CMixCoder, %struct.CXzBlock, %struct.CXzCheck, ptr, [32 x i8], [1024 x i8] }
%struct.CXzCheck = type { i32, i32, i64, ptr }

; Function Attrs: nounwind uwtable
define i32 @XzUnpacker_IsStreamWasFinished(ptr noundef %0) #0 {
  %2 = alloca ptr, align 8
  store ptr %0, ptr %2, align 8
  %3 = load ptr, ptr %2, align 8
  %4 = getelementptr inbounds %struct.CXzUnpacker, ptr %3, i32 0, i32 0
  %5 = load i32, ptr %4, align 8
  %6 = icmp eq i32 %5, 4
  br i1 %6, label %7, label %14

7:                                                ; preds = %1
  %8 = load ptr, ptr %2, align 8
  %9 = getelementptr inbounds %struct.CXzUnpacker, ptr %8, i32 0, i32 11
  %10 = load i64, ptr %9, align 8
  %11 = trunc i64 %10 to i32
  %12 = and i32 %11, 3
  %13 = icmp eq i32 %12, 0
  br label %14

14:                                               ; preds = %7, %1
  %15 = phi i1 [ false, %1 ], [ %13, %7 ]
  %16 = zext i1 %15 to i32
  ret i32 %16
}