; Function Attrs: mustprogress nofree norecurse nosync nounwind willreturn memory(argmem: read) uwtable
define range(i32 0, 2) i32 @XzUnpacker_IsStreamWasFinished(ptr noundef readonly captures(none) %0) local_unnamed_addr #7 {
  %2 = load i32, ptr %0, align 8
  %3 = icmp eq i32 %2, 4
  br i1 %3, label %4, label %10

4:                                                ; preds = %1
  %5 = getelementptr inbounds nuw i8, ptr %0, i64 64
  %6 = load i64, ptr %5, align 8
  %7 = and i64 %6, 3
  %8 = icmp eq i64 %7, 0
  %9 = zext i1 %8 to i32
  br label %10

10:                                               ; preds = %4, %1
  %11 = phi i32 [ 0, %1 ], [ %9, %4 ]
  ret i32 %11
}